; Listing generated by Microsoft (R) Optimizing Compiler Version 16.00.30319.01 

include listing.inc

INCLUDELIB LIBCMT
INCLUDELIB OLDNAMES

_DATA	SEGMENT
$SG4443	DB	'%d = ', 00H
	ORG $+2
$SG4445	DB	'%d+ = ', 00H
	ORG $+1
$SG4456	DB	'%d = ', 00H
	ORG $+2
$SG4457	DB	'%d+ = ', 00H
	ORG $+1
$SG4470	DB	'r', 00H
	ORG $+2
$SG4472	DB	'r', 00H
	ORG $+2
$SG4471	DB	'/sys/class/thermal/thermal_zone1/temp', 00H
	ORG $+2
$SG4473	DB	'/sys/class/thermal/thermal_zone2/temp', 00H
	ORG $+2
$SG4474	DB	'r', 00H
	ORG $+2
$SG4486	DB	'%f', 00H
	ORG $+1
$SG4475	DB	'/sys/class/thermal/thermal_zone7/temp', 00H
	ORG $+2
$SG4478	DB	'Error opening temperature file', 00H
	ORG $+1
$SG4481	DB	'Error opening temperature file', 00H
	ORG $+1
$SG4484	DB	'Error opening temperature file', 00H
	ORG $+1
$SG4487	DB	'Error reading temperature data', 0aH, 00H
$SG4489	DB	'%f', 00H
	ORG $+1
$SG4492	DB	'%f', 00H
	ORG $+1
$SG4490	DB	'Error reading temperature data', 0aH, 00H
$SG4493	DB	'Error reading temperature data', 0aH, 00H
$SG4494	DB	'########################################################'
	DB	'######################', 0aH, 0aH, 00H
	ORG $+7
$SG4505	DB	'MegaMillions', 0aH, 0aH, 00H
	ORG $+1
$SG4527	DB	'[Evening] = Numbers', 0aH, 0aH, 00H
	ORG $+2
$SG4495	DB	'    New York Lottery v7.0 by alCoPaUL [NaCl][GIMO][ZnI]['
	DB	'b8]  June 11, 2026    ', 0aH, 0aH, 00H
	ORG $+7
$SG4507	DB	'PowerBall', 0aH, 0aH, 00H
	ORG $+12
$SG4496	DB	'########################################################'
	DB	'######################', 0aH, 0aH, 00H
	ORG $+7
$SG4509	DB	'NY Lotto 1', 0aH, 00H
	ORG $+4
$SG4510	DB	'NY Lotto 2', 0aH, 0aH, 00H
	ORG $+3
$SG4512	DB	'Cash4Life', 0aH, 0aH, 00H
	ORG $+4
$SG4514	DB	'Take 5', 0aH, 0aH, 00H
	ORG $+7
$SG4516	DB	'Pick 10', 0aH, 0aH, 00H
	ORG $+6
$SG4525	DB	'[Midday] || ', 00H
	ORG $+3
$SG4529	DB	'[Midday] || ', 00H
	ORG $+3
$SG4531	DB	'[Evening] = Win 4', 0aH, 0aH, 00H
	ORG $+4
$SG4532	DB	'QuickDraw', 0aH, 0aH, 00H
	ORG $+4
$SG4533	DB	'########################################################'
	DB	'######################', 0aH, 0aH, 00H
_DATA	ENDS
PUBLIC	__real@42780000
PUBLIC	__real@408f400000000000
PUBLIC	__real@3fc999999999999a
PUBLIC	main
EXTRN	getchar:PROC
EXTRN	__ImageBase:BYTE
EXTRN	srand:PROC
EXTRN	printf:PROC
EXTRN	fclose:PROC
EXTRN	fprintf:PROC
EXTRN	__iob_func:PROC
EXTRN	fscanf:PROC
EXTRN	perror:PROC
EXTRN	fopen:PROC
EXTRN	_fltused:DWORD
pdata	SEGMENT
$pdata$main DD	imagerel $LN30
	DD	imagerel $LN30+1180
	DD	imagerel $unwind$main
pdata	ENDS
xdata	SEGMENT
$unwind$main DD	010401H
	DD	0e204H
xdata	ENDS
;	COMDAT __real@42780000
; File c:\program files (x86)\microsoft visual studio 10.0\vc\bin\amd64\blottorch.c
CONST	SEGMENT
__real@42780000 DD 042780000r			; 62
CONST	ENDS
;	COMDAT __real@408f400000000000
CONST	SEGMENT
__real@408f400000000000 DQ 0408f400000000000r	; 1000
CONST	ENDS
;	COMDAT __real@3fc999999999999a
CONST	SEGMENT
__real@3fc999999999999a DQ 03fc999999999999ar	; 0.2
; Function compile flags: /Odtp
CONST	ENDS
_TEXT	SEGMENT
fp2$ = 32
i$ = 40
fp$ = 48
ia$ = 56
fp1$ = 64
temp_milli$ = 72
rawtime$ = 80
temp_milli2$ = 88
temp_milli1$ = 92
timeinfo$ = 96
tv174 = 104
tv214 = 108
main	PROC
; Line 72
$LN30:
	sub	rsp, 120				; 00000078H
; Line 83
	lea	rdx, OFFSET FLAT:$SG4470
	lea	rcx, OFFSET FLAT:$SG4471
	call	fopen
	mov	QWORD PTR fp2$[rsp], rax
; Line 84
	lea	rdx, OFFSET FLAT:$SG4472
	lea	rcx, OFFSET FLAT:$SG4473
	call	fopen
	mov	QWORD PTR fp1$[rsp], rax
; Line 85
	lea	rdx, OFFSET FLAT:$SG4474
	lea	rcx, OFFSET FLAT:$SG4475
	call	fopen
	mov	QWORD PTR fp$[rsp], rax
; Line 86
	cmp	QWORD PTR fp2$[rsp], 0
	jne	SHORT $LN26@main
	lea	rcx, OFFSET FLAT:$SG4478
	call	perror
	mov	eax, 1
	jmp	$LN27@main
$LN26@main:
; Line 87
	cmp	QWORD PTR fp1$[rsp], 0
	jne	SHORT $LN25@main
	lea	rcx, OFFSET FLAT:$SG4481
	call	perror
	mov	eax, 1
	jmp	$LN27@main
$LN25@main:
; Line 88
	cmp	QWORD PTR fp$[rsp], 0
	jne	SHORT $LN24@main
	lea	rcx, OFFSET FLAT:$SG4484
	call	perror
	mov	eax, 1
	jmp	$LN27@main
$LN24@main:
; Line 90
	lea	r8, QWORD PTR temp_milli2$[rsp]
	lea	rdx, OFFSET FLAT:$SG4486
	mov	rcx, QWORD PTR fp2$[rsp]
	call	fscanf
	cmp	eax, 1
	je	SHORT $LN23@main
	call	__iob_func
	add	rax, 96					; 00000060H
	lea	rdx, OFFSET FLAT:$SG4487
	mov	rcx, rax
	call	fprintf
	mov	rcx, QWORD PTR fp2$[rsp]
	call	fclose
	mov	eax, 1
	jmp	$LN27@main
$LN23@main:
; Line 91
	lea	r8, QWORD PTR temp_milli1$[rsp]
	lea	rdx, OFFSET FLAT:$SG4489
	mov	rcx, QWORD PTR fp1$[rsp]
	call	fscanf
	cmp	eax, 1
	je	SHORT $LN22@main
	call	__iob_func
	add	rax, 96					; 00000060H
	lea	rdx, OFFSET FLAT:$SG4490
	mov	rcx, rax
	call	fprintf
	mov	rcx, QWORD PTR fp1$[rsp]
	call	fclose
	mov	eax, 1
	jmp	$LN27@main
$LN22@main:
; Line 92
	lea	r8, QWORD PTR temp_milli$[rsp]
	lea	rdx, OFFSET FLAT:$SG4492
	mov	rcx, QWORD PTR fp$[rsp]
	call	fscanf
	cmp	eax, 1
	je	SHORT $LN21@main
	call	__iob_func
	add	rax, 96					; 00000060H
	lea	rdx, OFFSET FLAT:$SG4493
	mov	rcx, rax
	call	fprintf
	mov	rcx, QWORD PTR fp$[rsp]
	call	fclose
	mov	eax, 1
	jmp	$LN27@main
$LN21@main:
; Line 93
	mov	rcx, QWORD PTR fp2$[rsp]
	call	fclose
; Line 94
	mov	rcx, QWORD PTR fp1$[rsp]
	call	fclose
; Line 95
	mov	rcx, QWORD PTR fp$[rsp]
	call	fclose
; Line 97
	lea	rcx, QWORD PTR rawtime$[rsp]
	call	time
; Line 98
	lea	rcx, QWORD PTR rawtime$[rsp]
	call	localtime
	mov	QWORD PTR timeinfo$[rsp], rax
; Line 100
	lea	rcx, OFFSET FLAT:$SG4494
	call	printf
; Line 101
	lea	rcx, OFFSET FLAT:$SG4495
	call	printf
; Line 102
	lea	rcx, OFFSET FLAT:$SG4496
	call	printf
; Line 104
	mov	eax, 1900				; 0000076cH
	cdq
	mov	rcx, QWORD PTR timeinfo$[rsp]
	idiv	DWORD PTR [rcx+12]
	mov	rcx, QWORD PTR timeinfo$[rsp]
	mov	ecx, DWORD PTR [rcx+20]
	add	ecx, eax
	mov	eax, ecx
	cdq
	mov	rcx, QWORD PTR timeinfo$[rsp]
	idiv	DWORD PTR [rcx+16]
	inc	eax
	movd	xmm0, eax
	cvtdq2pd xmm0, xmm0
	movd	xmm1, DWORD PTR temp_milli2$[rsp]
	cvtps2pd xmm1, xmm1
	mulsd	xmm1, QWORD PTR __real@3fc999999999999a
	divsd	xmm1, QWORD PTR __real@408f400000000000
	mulsd	xmm0, xmm1
	movss	xmm1, DWORD PTR temp_milli1$[rsp]
	mulss	xmm1, DWORD PTR __real@42780000
	divss	xmm1, DWORD PTR temp_milli$[rsp]
	unpcklps xmm1, xmm1
	cvtps2pd xmm1, xmm1
	mulsd	xmm0, xmm1
	cvttsd2si rax, xmm0
	mov	ecx, eax
	call	srand
; Line 105
	mov	DWORD PTR i$[rsp], 1
	jmp	SHORT $LN20@main
$LN19@main:
	mov	eax, DWORD PTR i$[rsp]
	inc	eax
	mov	DWORD PTR i$[rsp], eax
$LN20@main:
	cmp	DWORD PTR i$[rsp], 7
	jge	$LN18@main
; Line 107
	mov	eax, DWORD PTR i$[rsp]
	mov	DWORD PTR tv174[rsp], eax
	mov	eax, DWORD PTR tv174[rsp]
	dec	eax
	mov	DWORD PTR tv174[rsp], eax
	cmp	DWORD PTR tv174[rsp], 5
	ja	$LN16@main
	movsxd	rax, DWORD PTR tv174[rsp]
	lea	rcx, OFFSET FLAT:__ImageBase
	mov	eax, DWORD PTR $LN29@main[rcx+rax*4]
	add	rax, rcx
	jmp	rax
$LN15@main:
; Line 110
	mov	r9d, 25
	xor	r8d, r8d
	mov	edx, 70					; 00000046H
	mov	ecx, 5
	call	gamesx
; Line 111
	lea	rcx, OFFSET FLAT:$SG4505
	call	printf
; Line 112
	jmp	$LN16@main
$LN14@main:
; Line 114
	mov	r9d, 26
	xor	r8d, r8d
	mov	edx, 69					; 00000045H
	mov	ecx, 5
	call	gamesx
; Line 115
	lea	rcx, OFFSET FLAT:$SG4507
	call	printf
; Line 116
	jmp	$LN16@main
$LN13@main:
; Line 118
	xor	r9d, r9d
	mov	r8b, 1
	mov	edx, 59					; 0000003bH
	mov	ecx, 7
	call	gamesx
; Line 119
	lea	rcx, OFFSET FLAT:$SG4509
	call	printf
; Line 120
	xor	r9d, r9d
	mov	r8b, 1
	mov	edx, 59					; 0000003bH
	mov	ecx, 7
	call	gamesx
; Line 121
	lea	rcx, OFFSET FLAT:$SG4510
	call	printf
; Line 122
	jmp	SHORT $LN16@main
$LN12@main:
; Line 124
	mov	r9d, 4
	xor	r8d, r8d
	mov	edx, 60					; 0000003cH
	mov	ecx, 5
	call	gamesx
; Line 125
	lea	rcx, OFFSET FLAT:$SG4512
	call	printf
; Line 126
	jmp	SHORT $LN16@main
$LN11@main:
; Line 128
	xor	r9d, r9d
	mov	r8b, 1
	mov	edx, 39					; 00000027H
	mov	ecx, 5
	call	gamesx
; Line 129
	lea	rcx, OFFSET FLAT:$SG4514
	call	printf
; Line 130
	jmp	SHORT $LN16@main
$LN10@main:
; Line 132
	xor	r9d, r9d
	mov	r8b, 1
	mov	edx, 80					; 00000050H
	mov	ecx, 10
	call	gamesx
; Line 133
	lea	rcx, OFFSET FLAT:$SG4516
	call	printf
$LN16@main:
; Line 137
	jmp	$LN19@main
$LN18@main:
; Line 138
	mov	DWORD PTR ia$[rsp], 1
	jmp	SHORT $LN9@main
$LN8@main:
	mov	eax, DWORD PTR ia$[rsp]
	inc	eax
	mov	DWORD PTR ia$[rsp], eax
$LN9@main:
	cmp	DWORD PTR ia$[rsp], 5
	jge	$LN7@main
; Line 140
	mov	eax, DWORD PTR ia$[rsp]
	mov	DWORD PTR tv214[rsp], eax
	cmp	DWORD PTR tv214[rsp], 1
	je	SHORT $LN4@main
	cmp	DWORD PTR tv214[rsp], 2
	je	SHORT $LN3@main
	cmp	DWORD PTR tv214[rsp], 3
	je	SHORT $LN2@main
	cmp	DWORD PTR tv214[rsp], 4
	je	SHORT $LN1@main
	jmp	SHORT $LN5@main
$LN4@main:
; Line 143
	mov	ecx, 3
	call	numbersx
; Line 144
	lea	rcx, OFFSET FLAT:$SG4525
	call	printf
; Line 145
	jmp	SHORT $LN5@main
$LN3@main:
; Line 147
	mov	ecx, 3
	call	numbersx
; Line 148
	lea	rcx, OFFSET FLAT:$SG4527
	call	printf
; Line 149
	jmp	SHORT $LN5@main
$LN2@main:
; Line 151
	mov	ecx, 4
	call	numbersx
; Line 152
	lea	rcx, OFFSET FLAT:$SG4529
	call	printf
; Line 153
	jmp	SHORT $LN5@main
$LN1@main:
; Line 155
	mov	ecx, 4
	call	numbersx
; Line 156
	lea	rcx, OFFSET FLAT:$SG4531
	call	printf
$LN5@main:
; Line 160
	jmp	$LN8@main
$LN7@main:
; Line 161
	xor	r9d, r9d
	mov	r8b, 1
	mov	edx, 80					; 00000050H
	mov	ecx, 10
	call	gamesx
; Line 162
	lea	rcx, OFFSET FLAT:$SG4532
	call	printf
; Line 163
	lea	rcx, OFFSET FLAT:$SG4533
	call	printf
; Line 164
	call	getchar
; Line 165
	xor	eax, eax
$LN27@main:
; Line 166
	add	rsp, 120				; 00000078H
	ret	0
$LN29@main:
	DD	$LN15@main
	DD	$LN14@main
	DD	$LN13@main
	DD	$LN12@main
	DD	$LN11@main
	DD	$LN10@main
main	ENDP
_TEXT	ENDS
EXTRN	_localtime64:PROC
pdata	SEGMENT
$pdata$localtime DD imagerel localtime
	DD	imagerel localtime+24
	DD	imagerel $unwind$localtime
pdata	ENDS
xdata	SEGMENT
$unwind$localtime DD 010901H
	DD	04209H
; Function compile flags: /Odtp
xdata	ENDS
_TEXT	SEGMENT
_Time$ = 48
localtime PROC
; File c:\program files (x86)\microsoft visual studio 10.0\vc\bin\amd64\time.inl
; Line 113
	mov	QWORD PTR [rsp+8], rcx
	sub	rsp, 40					; 00000028H
; Line 116
	mov	rcx, QWORD PTR _Time$[rsp]
	call	_localtime64
; Line 118
	add	rsp, 40					; 00000028H
	ret	0
localtime ENDP
_TEXT	ENDS
EXTRN	_time64:PROC
pdata	SEGMENT
$pdata$time DD	imagerel time
	DD	imagerel time+24
	DD	imagerel $unwind$time
pdata	ENDS
xdata	SEGMENT
$unwind$time DD	010901H
	DD	04209H
; Function compile flags: /Odtp
xdata	ENDS
_TEXT	SEGMENT
_Time$ = 48
time	PROC
; Line 132
	mov	QWORD PTR [rsp+8], rcx
	sub	rsp, 40					; 00000028H
; Line 133
	mov	rcx, QWORD PTR _Time$[rsp]
	call	_time64
; Line 134
	add	rsp, 40					; 00000028H
	ret	0
time	ENDP
_TEXT	ENDS
PUBLIC	__$ArrayPad$
EXTRN	__GSHandlerCheck:PROC
EXTRN	rand:PROC
EXTRN	__security_cookie:QWORD
EXTRN	__security_check_cookie:PROC
pdata	SEGMENT
$pdata$gamesx DD imagerel gamesx
	DD	imagerel gamesx+491
	DD	imagerel $unwind$gamesx
pdata	ENDS
xdata	SEGMENT
$unwind$gamesx DD 032c19H
	DD	016011aH
	DD	07013H
	DD	imagerel __GSHandlerCheck
	DD	0a0H
; Function compile flags: /Odtp
xdata	ENDS
_TEXT	SEGMENT
y$ = 32
x$ = 36
a$ = 40
jc$ = 44
hc$ = 48
zy$ = 52
z$ = 56
e$ = 60
GGGc$ = 80
__$ArrayPad$ = 160
xSIZEc$ = 192
xRANGEc$ = 200
islotto$ = 208
ball$ = 216
gamesx	PROC
; File c:\program files (x86)\microsoft visual studio 10.0\vc\bin\amd64\blottorch.c
; Line 12
	mov	DWORD PTR [rsp+32], r9d
	mov	BYTE PTR [rsp+24], r8b
	mov	DWORD PTR [rsp+16], edx
	mov	DWORD PTR [rsp+8], ecx
	push	rdi
	sub	rsp, 176				; 000000b0H
	mov	rax, QWORD PTR __security_cookie
	xor	rax, rsp
	mov	QWORD PTR __$ArrayPad$[rsp], rax
; Line 13
	mov	DWORD PTR GGGc$[rsp], 0
	lea	rax, QWORD PTR GGGc$[rsp+4]
	mov	rdi, rax
	xor	eax, eax
	mov	ecx, 76					; 0000004cH
	rep stosb
; Line 14
	mov	DWORD PTR hc$[rsp], 0
; Line 15
	mov	DWORD PTR jc$[rsp], 0
; Line 17
	mov	DWORD PTR a$[rsp], 0
	jmp	SHORT $LN23@gamesx
$LN22@gamesx:
	mov	eax, DWORD PTR a$[rsp]
	inc	eax
	mov	DWORD PTR a$[rsp], eax
$LN23@gamesx:
	mov	eax, DWORD PTR xSIZEc$[rsp]
	cmp	DWORD PTR a$[rsp], eax
	jge	$LN21@gamesx
; Line 19
	mov	DWORD PTR e$[rsp], 0
	jmp	SHORT $LN20@gamesx
$LN19@gamesx:
	mov	eax, DWORD PTR e$[rsp]
	inc	eax
	mov	DWORD PTR e$[rsp], eax
$LN20@gamesx:
	mov	eax, DWORD PTR xSIZEc$[rsp]
	cmp	DWORD PTR e$[rsp], eax
	jge	$LN18@gamesx
; Line 21
	mov	DWORD PTR x$[rsp], 0
	jmp	SHORT $LN17@gamesx
$LN16@gamesx:
	mov	eax, DWORD PTR x$[rsp]
	inc	eax
	mov	DWORD PTR x$[rsp], eax
$LN17@gamesx:
	mov	eax, DWORD PTR xSIZEc$[rsp]
	cmp	DWORD PTR x$[rsp], eax
	jge	$LN15@gamesx
; Line 23
	mov	DWORD PTR y$[rsp], 0
	jmp	SHORT $LN14@gamesx
$LN13@gamesx:
	mov	eax, DWORD PTR y$[rsp]
	inc	eax
	mov	DWORD PTR y$[rsp], eax
$LN14@gamesx:
	mov	eax, DWORD PTR xSIZEc$[rsp]
	cmp	DWORD PTR y$[rsp], eax
	jge	SHORT $LN12@gamesx
; Line 25
	mov	DWORD PTR z$[rsp], 0
	jmp	SHORT $LN11@gamesx
$LN10@gamesx:
	mov	eax, DWORD PTR z$[rsp]
	inc	eax
	mov	DWORD PTR z$[rsp], eax
$LN11@gamesx:
	mov	eax, DWORD PTR xSIZEc$[rsp]
	cmp	DWORD PTR z$[rsp], eax
	jge	SHORT $LN9@gamesx
; Line 27
	movsxd	rax, DWORD PTR z$[rsp]
	mov	eax, DWORD PTR GGGc$[rsp+rax*4]
	cmp	DWORD PTR hc$[rsp], eax
	jne	SHORT $LN8@gamesx
$LN7@gamesx:
; Line 29
	xor	eax, eax
	cmp	eax, 1
	je	SHORT $LN6@gamesx
; Line 31
	call	rand
	cdq
	idiv	DWORD PTR xRANGEc$[rsp]
	mov	eax, edx
	inc	eax
	mov	DWORD PTR jc$[rsp], eax
; Line 32
	movsxd	rax, DWORD PTR z$[rsp]
	mov	eax, DWORD PTR GGGc$[rsp+rax*4]
	cmp	DWORD PTR jc$[rsp], eax
	je	SHORT $LN5@gamesx
; Line 34
	mov	eax, DWORD PTR jc$[rsp]
	mov	DWORD PTR hc$[rsp], eax
; Line 35
	jmp	SHORT $LN6@gamesx
$LN5@gamesx:
; Line 37
	jmp	SHORT $LN7@gamesx
$LN6@gamesx:
$LN8@gamesx:
; Line 40
	jmp	SHORT $LN10@gamesx
$LN9@gamesx:
; Line 42
	jmp	$LN13@gamesx
$LN12@gamesx:
; Line 43
	jmp	$LN16@gamesx
$LN15@gamesx:
; Line 44
	jmp	$LN19@gamesx
$LN18@gamesx:
; Line 45
	movsxd	rax, DWORD PTR a$[rsp]
	mov	ecx, DWORD PTR hc$[rsp]
	mov	DWORD PTR GGGc$[rsp+rax*4], ecx
; Line 46
	jmp	$LN22@gamesx
$LN21@gamesx:
; Line 47
	mov	DWORD PTR zy$[rsp], 0
	jmp	SHORT $LN4@gamesx
$LN3@gamesx:
	mov	eax, DWORD PTR zy$[rsp]
	inc	eax
	mov	DWORD PTR zy$[rsp], eax
$LN4@gamesx:
	mov	eax, DWORD PTR xSIZEc$[rsp]
	cmp	DWORD PTR zy$[rsp], eax
	jge	SHORT $LN2@gamesx
; Line 49
	movsxd	rax, DWORD PTR zy$[rsp]
	mov	edx, DWORD PTR GGGc$[rsp+rax*4]
	lea	rcx, OFFSET FLAT:$SG4443
	call	printf
; Line 50
	jmp	SHORT $LN3@gamesx
$LN2@gamesx:
; Line 51
	movsx	eax, BYTE PTR islotto$[rsp]
	test	eax, eax
	jne	SHORT $LN1@gamesx
; Line 53
	call	rand
	cdq
	idiv	DWORD PTR ball$[rsp]
	mov	eax, edx
	inc	eax
	mov	edx, eax
	lea	rcx, OFFSET FLAT:$SG4445
	call	printf
$LN1@gamesx:
; Line 55
	mov	rcx, QWORD PTR __$ArrayPad$[rsp]
	xor	rcx, rsp
	call	__security_check_cookie
	add	rsp, 176				; 000000b0H
	pop	rdi
	ret	0
gamesx	ENDP
_TEXT	ENDS
pdata	SEGMENT
$pdata$numbersx DD imagerel numbersx
	DD	imagerel numbersx+128
	DD	imagerel $unwind$numbersx
pdata	ENDS
xdata	SEGMENT
$unwind$numbersx DD 010801H
	DD	06208H
; Function compile flags: /Odtp
xdata	ENDS
_TEXT	SEGMENT
x$ = 32
jhe1$ = 36
jhe$ = 40
xrange$ = 64
numbersx PROC
; Line 58
	mov	DWORD PTR [rsp+8], ecx
	sub	rsp, 56					; 00000038H
; Line 59
	mov	DWORD PTR jhe$[rsp], 0
; Line 60
	mov	DWORD PTR jhe1$[rsp], 0
; Line 62
	mov	DWORD PTR x$[rsp], 0
	jmp	SHORT $LN3@numbersx
$LN2@numbersx:
	mov	eax, DWORD PTR x$[rsp]
	inc	eax
	mov	DWORD PTR x$[rsp], eax
$LN3@numbersx:
	mov	eax, DWORD PTR xrange$[rsp]
	cmp	DWORD PTR x$[rsp], eax
	jge	SHORT $LN1@numbersx
; Line 64
	call	rand
	cdq
	mov	ecx, 10
	idiv	ecx
	mov	eax, edx
	mov	DWORD PTR jhe1$[rsp], eax
; Line 65
	mov	edx, DWORD PTR jhe1$[rsp]
	lea	rcx, OFFSET FLAT:$SG4456
	call	printf
; Line 66
	mov	eax, DWORD PTR jhe1$[rsp]
	mov	ecx, DWORD PTR jhe$[rsp]
	add	ecx, eax
	mov	eax, ecx
	mov	DWORD PTR jhe$[rsp], eax
; Line 67
	jmp	SHORT $LN2@numbersx
$LN1@numbersx:
; Line 68
	mov	edx, DWORD PTR jhe$[rsp]
	lea	rcx, OFFSET FLAT:$SG4457
	call	printf
; Line 69
	add	rsp, 56					; 00000038H
	ret	0
numbersx ENDP
_TEXT	ENDS
END
